	.file	"ee_oo_counter.c"
__SP_H__ = 0x3e
__SP_L__ = 0x3d
__SREG__ = 0x3f
__tmp_reg__ = 0
__zero_reg__ = 1
	.text
.Ltext0:
	.cfi_sections	.debug_frame
	.section	.text.osEE_counter_insert_abs_trigger,"ax",@progbits
.global	osEE_counter_insert_abs_trigger
	.type	osEE_counter_insert_abs_trigger, @function
osEE_counter_insert_abs_trigger:
.LFB62:
	.file 1 "/home/user/lab-osek/OSEK-GroupProject/erika/src/ee_oo_counter.c"
	.loc 1 75 0
	.cfi_startproc
.LVL0:
	push r14
.LCFI0:
	.cfi_def_cfa_offset 3
	.cfi_offset 14, -2
	push r15
.LCFI1:
	.cfi_def_cfa_offset 4
	.cfi_offset 15, -3
	push r16
.LCFI2:
	.cfi_def_cfa_offset 5
	.cfi_offset 16, -4
	push r17
.LCFI3:
	.cfi_def_cfa_offset 6
	.cfi_offset 17, -5
	push r28
.LCFI4:
	.cfi_def_cfa_offset 7
	.cfi_offset 28, -6
	push r29
.LCFI5:
	.cfi_def_cfa_offset 8
	.cfi_offset 29, -7
/* prologue: function */
/* frame size = 0 */
/* stack size = 6 */
.L__stack_usage = 6
	.loc 1 77 0
	movw r26,r24
	ld r24,X+
	ld r25,X
.LVL1:
	.loc 1 81 0
	movw r26,r24
.LVL2:
	ld r30,X+
	ld r31,X
	sbiw r26,1
.LVL3:
	.loc 1 83 0
	adiw r26,2
	ld r16,X+
	ld r17,X
.LVL4:
	.loc 1 86 0
	movw r26,r22
	ld r28,X+
	ld r29,X
	ldi r18,lo8(1)
	ldi r19,0
	std Y+5,r19
	std Y+4,r18
	.loc 1 87 0
	std Y+3,r21
	std Y+2,r20
	.loc 1 79 0
	ldi r19,0
	ldi r18,0
.LVL5:
.L2:
	.loc 1 89 0
	sbiw r30,0
	breq .L5
.LBB38:
	.loc 1 90 0
	ld r26,Z
	ldd r27,Z+1
	adiw r26,2
	ld r14,X+
	ld r15,X
	sbiw r26,2+1
.LVL6:
	.loc 1 92 0
	cp r16,r14
	cpc r17,r15
	brsh .L3
	.loc 1 94 0
	cp r20,r14
	cpc r21,r15
	brsh .L10
	.loc 1 94 0 is_stmt 0 discriminator 1
	cp r16,r20
	cpc r17,r21
	brlo .L5
.L10:
.LVL7:
	.loc 1 109 0 is_stmt 1
	ld r15,X
	adiw r26,1
	ld r26,X
.LVL8:
.LBE38:
	.loc 1 75 0
	movw r18,r30
	mov r30,r15
.LVL9:
	mov r31,r26
	rjmp .L2
.LVL10:
.L3:
.LBB39:
	.loc 1 104 0
	cp r16,r20
	cpc r17,r21
	brlo .L5
	.loc 1 104 0 is_stmt 0 discriminator 1
	cp r20,r14
	cpc r21,r15
	brsh .L10
.LVL11:
.L5:
.LBE39:
	.loc 1 116 0 is_stmt 1
	cp r18,__zero_reg__
	cpc r19,__zero_reg__
	breq .L8
	.loc 1 117 0
	movw r26,r18
	ld r24,X+
	ld r25,X
.LVL12:
.L8:
	.loc 1 119 0
	movw r26,r24
	st X+,r22
	st X,r23
	.loc 1 122 0
	std Y+1,r31
	st Y,r30
/* epilogue start */
	.loc 1 123 0
	pop r29
	pop r28
	pop r17
	pop r16
.LVL13:
	pop r15
	pop r14
	ret
	.cfi_endproc
.LFE62:
	.size	osEE_counter_insert_abs_trigger, .-osEE_counter_insert_abs_trigger
	.section	.text.osEE_counter_insert_rel_trigger,"ax",@progbits
.global	osEE_counter_insert_rel_trigger
	.type	osEE_counter_insert_rel_trigger, @function
osEE_counter_insert_rel_trigger:
.LFB61:
	.loc 1 63 0
	.cfi_startproc
.LVL14:
	push r28
.LCFI6:
	.cfi_def_cfa_offset 3
	.cfi_offset 28, -2
	push r29
.LCFI7:
	.cfi_def_cfa_offset 4
	.cfi_offset 29, -3
/* prologue: function */
/* frame size = 0 */
/* stack size = 2 */
.L__stack_usage = 2
.LVL15:
.LBB42:
.LBB43:
	.file 2 "/home/user/lab-osek/OSEK-GroupProject/erika/src/ee_kernel.h"
	.loc 2 486 0
	movw r26,r24
	adiw r26,2
	ld r30,X+
	ld r31,X
	sbiw r26,2+1
.LVL16:
	.loc 2 488 0
	ld __tmp_reg__,X+
	ld r27,X
	mov r26,__tmp_reg__
	adiw r26,2
	ld r18,X+
	ld r19,X
.LVL17:
	.loc 2 490 0
	movw r26,r30
	sub r26,r20
	sbc r27,r21
	cp r26,r18
	cpc r27,r19
	brlo .L12
	.loc 2 491 0
	add r20,r18
	adc r21,r19
.LVL18:
.L13:
/* epilogue start */
.LBE43:
.LBE42:
	.loc 1 66 0
	pop r29
	pop r28
	.loc 1 64 0
	jmp osEE_counter_insert_abs_trigger
.LVL19:
.L12:
.LBB45:
.LBB44:
	.loc 2 493 0
	subi r20,1
	sbc r21,__zero_reg__
.LVL20:
	add r20,r18
	adc r21,r19
.LVL21:
	sub r20,r30
	sbc r21,r31
.LVL22:
	rjmp .L13
.LBE44:
.LBE45:
	.cfi_endproc
.LFE61:
	.size	osEE_counter_insert_rel_trigger, .-osEE_counter_insert_rel_trigger
	.section	.text.osEE_counter_cancel_trigger,"ax",@progbits
.global	osEE_counter_cancel_trigger
	.type	osEE_counter_cancel_trigger, @function
osEE_counter_cancel_trigger:
.LFB63:
	.loc 1 131 0
	.cfi_startproc
.LVL23:
	push r28
.LCFI8:
	.cfi_def_cfa_offset 3
	.cfi_offset 28, -2
	push r29
.LCFI9:
	.cfi_def_cfa_offset 4
	.cfi_offset 29, -3
/* prologue: function */
/* frame size = 0 */
/* stack size = 2 */
.L__stack_usage = 2
	.loc 1 133 0
	movw r30,r24
	ld r28,Z
	ldd r29,Z+1
.LVL24:
	.loc 1 135 0
	movw r30,r22
	ld r26,Z
	ldd r27,Z+1
.LVL25:
	.loc 1 137 0
	ld r30,Y
	ldd r31,Y+1
.LVL26:
.L26:
.LBB46:
	.loc 1 147 0 discriminator 1
	cp r22,r30
	cpc r23,r31
	brne .L15
	.loc 1 151 0
	ld r24,X+
	ld r25,X
	sbiw r26,1
.LVL27:
	std Y+1,r25
	st Y,r24
	rjmp .L16
.LVL28:
.L15:
	.loc 1 146 0 discriminator 2
	ld r28,Z
	ldd r29,Z+1
	ld r30,Y
	ldd r31,Y+1
.LVL29:
	.loc 1 147 0 discriminator 2
	sbiw r30,0
	brne .L26
.LVL30:
.L16:
.LBE46:
	.loc 1 156 0
	adiw r26,4+1
	st X,__zero_reg__
	st -X,__zero_reg__
	sbiw r26,4
/* epilogue start */
	.loc 1 157 0
	pop r29
	pop r28
	ret
	.cfi_endproc
.LFE63:
	.size	osEE_counter_cancel_trigger, .-osEE_counter_cancel_trigger
	.section	.text.osEE_counter_increment,"ax",@progbits
.global	osEE_counter_increment
	.type	osEE_counter_increment, @function
osEE_counter_increment:
.LFB66:
	.loc 1 291 0
	.cfi_startproc
.LVL31:
	push r8
.LCFI10:
	.cfi_def_cfa_offset 3
	.cfi_offset 8, -2
	push r9
.LCFI11:
	.cfi_def_cfa_offset 4
	.cfi_offset 9, -3
	push r10
.LCFI12:
	.cfi_def_cfa_offset 5
	.cfi_offset 10, -4
	push r11
.LCFI13:
	.cfi_def_cfa_offset 6
	.cfi_offset 11, -5
	push r12
.LCFI14:
	.cfi_def_cfa_offset 7
	.cfi_offset 12, -6
	push r13
.LCFI15:
	.cfi_def_cfa_offset 8
	.cfi_offset 13, -7
	push r14
.LCFI16:
	.cfi_def_cfa_offset 9
	.cfi_offset 14, -8
	push r15
.LCFI17:
	.cfi_def_cfa_offset 10
	.cfi_offset 15, -9
	push r16
.LCFI18:
	.cfi_def_cfa_offset 11
	.cfi_offset 16, -10
	push r17
.LCFI19:
	.cfi_def_cfa_offset 12
	.cfi_offset 17, -11
	push r28
.LCFI20:
	.cfi_def_cfa_offset 13
	.cfi_offset 28, -12
	push r29
.LCFI21:
	.cfi_def_cfa_offset 14
	.cfi_offset 29, -13
/* prologue: function */
/* frame size = 0 */
/* stack size = 12 */
.L__stack_usage = 12
	.loc 1 293 0
	movw r26,r24
	ld r14,X+
	ld r15,X
	sbiw r26,1
.LVL32:
.LBB66:
	.loc 1 320 0
	movw r30,r14
	ldd r18,Z+2
	ldd r19,Z+3
	adiw r26,2
	ld r20,X+
	ld r21,X
	cp r18,r20
	cpc r19,r21
	brsh .+2
	rjmp .L28
	.loc 1 321 0
	std Z+3,__zero_reg__
	std Z+2,__zero_reg__
.LVL33:
	ldi r19,0
	ldi r18,0
.LVL34:
.L29:
	.loc 1 335 0
	movw r30,r14
	ld r28,Z
	ldd r29,Z+1
.LVL35:
	.loc 1 337 0
	sbiw r28,0
	brne .+2
	rjmp .L27
.LVL36:
.LBB67:
	.loc 1 341 0
	ld r26,Y
	ldd r27,Y+1
	adiw r26,2
	ld r20,X+
	ld r21,X
	cp r20,r18
	cpc r21,r19
	breq .+2
	rjmp .L27
	movw r26,r28
.LVL37:
.L32:
.LBB68:
	.loc 1 351 0
	ld r18,X+
	ld r19,X
	movw r30,r18
	ld r26,Z
	ldd r27,Z+1
.LVL38:
	.loc 1 353 0
	sbiw r26,0
	breq .L31
	.loc 1 353 0 is_stmt 0 discriminator 1
	ld r22,X+
	ld r23,X
	sbiw r26,1
	.loc 1 352 0 is_stmt 1 discriminator 1
	movw r30,r22
	ldd r22,Z+2
	ldd r23,Z+3
	cp r20,r22
	cpc r21,r23
	breq .L32
.L31:
	movw r16,r24
	.loc 1 356 0
	movw r30,r18
	std Z+1,__zero_reg__
	st Z,__zero_reg__
	.loc 1 359 0
	movw r30,r14
	std Z+1,r27
	st Z,r26
.LBB69:
.LBB70:
.LBB71:
.LBB72:
.LBB73:
.LBB74:
.LBB75:
	.loc 1 208 0
	lds r12,CDB
	lds r13,CDB+1
.LVL39:
.L42:
.LBE75:
.LBE74:
.LBE73:
.LBE72:
.LBE71:
.LBE70:
	.loc 1 374 0
	ld r14,Y
	ldd r15,Y+1
	movw r26,r14
	ld r9,X
	adiw r26,1
	ld r8,X
	sbiw r26,1
.LVL40:
.LBB87:
.LBB85:
	.loc 1 269 0
	adiw r26,6
	ld r10,X+
	ld r11,X
.LVL41:
.LBB83:
.LBB81:
	.loc 1 166 0
	ldd r24,Y+12
	ldd r25,Y+13
	cpi r24,1
	cpc r25,__zero_reg__
	breq .L34
	brlo .L35
	cpi r24,2
	cpc r25,__zero_reg__
	brne .+2
	rjmp .L36
	sbiw r24,3
	brne .+2
	rjmp .L37
.L33:
.LVL42:
.LBE81:
.LBE83:
	.loc 1 274 0
	cp r10,__zero_reg__
	cpc r11,__zero_reg__
	brne .+2
	rjmp .L40
	.loc 1 275 0
	movw r20,r10
	movw r22,r28
	movw r24,r16
	call osEE_counter_insert_rel_trigger
.LVL43:
.L41:
	mov r28,r9
.LVL44:
	mov r29,r8
.LBE85:
.LBE87:
.LBE69:
	.loc 1 397 0
	sbiw r28,0
	brne .L42
.LVL45:
.L27:
/* epilogue start */
.LBE68:
.LBE67:
.LBE66:
	.loc 1 404 0
	pop r29
	pop r28
	pop r17
	pop r16
	pop r15
	pop r14
	pop r13
	pop r12
	pop r11
	pop r10
	pop r9
	pop r8
	ret
.LVL46:
.L28:
.LBB92:
	.loc 1 323 0
	subi r18,-1
	sbci r19,-1
	std Z+3,r19
	std Z+2,r18
.LVL47:
	rjmp .L29
.LVL48:
.L35:
.LBB91:
.LBB90:
.LBB89:
.LBB88:
.LBB86:
.LBB84:
.LBB82:
.LBB79:
	.loc 1 172 0
	ldd r20,Y+6
	ldd r21,Y+7
	ldi r19,0
	ldi r18,0
	ldi r22,lo8(CDB)
	ldi r23,hi8(CDB)
	ldi r24,lo8(KDB)
	ldi r25,hi8(KDB)
	call osEE_scheduler_task_activated
.LVL49:
	rjmp .L33
.L34:
.LBE79:
.LBB80:
	.loc 1 183 0
	ldd r22,Y+6
	ldd r23,Y+7
.LVL50:
	.loc 1 185 0
	movw r26,r22
	adiw r26,4
	ld r30,X+
	ld r31,X
.LVL51:
	.loc 1 194 0
	ldd r20,Z+2
	ldd r21,Z+3
	cp r20,__zero_reg__
	cpc r21,__zero_reg__
	breq .L33
	.loc 1 187 0
	ldd r24,Y+10
	ldd r25,Y+11
	.loc 1 202 0
	ldd r18,Z+8
	ldd r19,Z+9
	or r18,r24
	or r19,r25
	std Z+9,r19
	std Z+8,r18
	.loc 1 204 0
	ldd r18,Z+6
	ldd r19,Z+7
	and r24,r18
	and r25,r19
	or r24,r25
	brne .+2
	rjmp .L33
	cpi r20,3
	cpc r21,__zero_reg__
	breq .+2
	rjmp .L33
.LVL52:
.LBB78:
.LBB76:
.LBB77:
	.file 3 "/home/user/lab-osek/OSEK-GroupProject/erika/inc/ee_scheduler_types.h"
	.loc 3 82 0
	movw r26,r12
	adiw r26,4
	ld r30,X+
	ld r31,X
	sbiw r26,4+1
.LVL53:
	.loc 3 83 0
	ld r24,Z
	ldd r25,Z+1
	adiw r26,4+1
	st X,r25
	st -X,r24
	sbiw r26,4
	.loc 3 84 0
	std Z+1,__zero_reg__
	st Z,__zero_reg__
.LVL54:
.LBE77:
.LBE76:
	.loc 1 210 0
	std Z+3,r23
	std Z+2,r22
	.loc 1 213 0
	movw r20,r30
	ldi r22,lo8(CDB)
	ldi r23,hi8(CDB)
.LVL55:
	ldi r24,lo8(KDB)
	ldi r25,hi8(KDB)
	call osEE_scheduler_task_unblocked
.LVL56:
	rjmp .L33
.L36:
.LBE78:
.LBE80:
	.loc 1 226 0
	ldd r24,Y+8
	ldd r25,Y+9
	call osEE_counter_increment
.LVL57:
	rjmp .L33
.LVL58:
.L37:
	.loc 1 239 0
	ldd r30,Y+4
	ldd r31,Y+5
	icall
.LVL59:
	rjmp .L33
.LVL60:
.L40:
.LBE82:
.LBE84:
	.loc 1 279 0
	movw r30,r14
	std Z+5,__zero_reg__
	std Z+4,__zero_reg__
	rjmp .L41
.LBE86:
.LBE88:
.LBE89:
.LBE90:
.LBE91:
.LBE92:
	.cfi_endproc
.LFE66:
	.size	osEE_counter_increment, .-osEE_counter_increment
	.text
.Letext0:
	.file 4 "/home/user/arduino-1.8.13/hardware/tools/avr/avr/include/stdint.h"
	.file 5 "/home/user/lab-osek/OSEK-GroupProject/erika/inc/ee_platform_types.h"
	.file 6 "/home/user/lab-osek/OSEK-GroupProject/erika/inc/ee_api_types.h"
	.file 7 "/home/user/lab-osek/OSEK-GroupProject/erika/inc/ee_hal_internal_types.h"
	.file 8 "/home/user/lab-osek/OSEK-GroupProject/erika/inc/ee_kernel_types.h"
	.file 9 "/home/user/lab-osek/OSEK-GroupProject/erika/inc/ee_get_kernel_and_core.h"
	.file 10 "/home/user/lab-osek/OSEK-GroupProject/erika/inc/ee_hal.h"
	.file 11 "/home/user/lab-osek/OSEK-GroupProject/erika/src/ee_scheduler.h"