	.file	"ee_oo_api_osek.c"
__SP_H__ = 0x3e
__SP_L__ = 0x3d
__SREG__ = 0x3f
__tmp_reg__ = 0
__zero_reg__ = 1
	.text
.Ltext0:
	.cfi_sections	.debug_frame
	.section	.text.osEE_check_disableint,"ax",@progbits
	.type	osEE_check_disableint, @function
osEE_check_disableint:
.LFB46:
	.file 1 "/home/user/lab-osek/OSEK-GroupProject/erika/src/ee_kernel.h"
	.loc 1 263 0
	.cfi_startproc
.LVL0:
/* prologue: function */
/* frame size = 0 */
/* stack size = 0 */
.L__stack_usage = 0
	movw r30,r24
	.loc 1 264 0
	ldd r24,Z+15
.LVL1:
	cpse r24,__zero_reg__
	rjmp .L5
	.loc 1 264 0 is_stmt 0 discriminator 2
	ldd r24,Z+16
	cpse r24,__zero_reg__
	rjmp .L5
	.loc 1 264 0 discriminator 4
	ldi r18,lo8(1)
	ldi r25,0
	ldd r24,Z+17
	cpse r24,__zero_reg__
	rjmp .L3
	ldi r18,0
.L3:
	mov r24,r18
	ret
.L5:
	.loc 1 264 0
	ldi r24,lo8(1)
	ldi r25,0
/* epilogue start */
	.loc 1 266 0 is_stmt 1
	ret
	.cfi_endproc
.LFE46:
	.size	osEE_check_disableint, .-osEE_check_disableint
	.section	.text.DisableAllInterrupts,"ax",@progbits
.global	DisableAllInterrupts
	.type	DisableAllInterrupts, @function
DisableAllInterrupts:
.LFB61:
	.file 2 "/home/user/lab-osek/OSEK-GroupProject/erika/src/ee_oo_api_osek.c"
	.loc 2 67 0
	.cfi_startproc
/* prologue: function */
/* frame size = 0 */
/* stack size = 0 */
.L__stack_usage = 0
	.loc 2 69 0
	lds r30,CDB
	lds r31,CDB+1
.LBB475:
.LBB476:
	.file 3 "/home/user/lab-osek/OSEK-GroupProject/erika/src/ee_hal_internal.h"
	.loc 3 100 0
/* #APP */
 ;  100 "/home/user/lab-osek/OSEK-GroupProject/erika/src/ee_hal_internal.h" 1
	cli
 ;  0 "" 2
.LVL2:
/* #NOAPP */
.LBE476:
.LBE475:
	.loc 2 73 0
	ldi r24,lo8(1)
	std Z+17,r24
.LVL3:
/* epilogue start */
	.loc 2 76 0
	ret
	.cfi_endproc
.LFE61:
	.size	DisableAllInterrupts, .-DisableAllInterrupts
	.section	.text.EnableAllInterrupts,"ax",@progbits
.global	EnableAllInterrupts
	.type	EnableAllInterrupts, @function
EnableAllInterrupts:
.LFB62:
	.loc 2 83 0
	.cfi_startproc
/* prologue: function */
/* frame size = 0 */
/* stack size = 0 */
.L__stack_usage = 0
	.loc 2 90 0
	lds r30,CDB
	lds r31,CDB+1
.LVL4:
	.loc 2 94 0
	ldd r24,Z+17
	tst r24
	breq .L7
	.loc 2 95 0
	std Z+17,__zero_reg__
.LBB477:
.LBB478:
	.loc 3 105 0
/* #APP */
 ;  105 "/home/user/lab-osek/OSEK-GroupProject/erika/src/ee_hal_internal.h" 1
	sei
 ;  0 "" 2
.LVL5:
/* #NOAPP */
.L7:
/* epilogue start */
.LBE478:
.LBE477:
	.loc 2 102 0
	ret
	.cfi_endproc
.LFE62:
	.size	EnableAllInterrupts, .-EnableAllInterrupts
	.section	.text.SuspendAllInterrupts,"ax",@progbits
.global	SuspendAllInterrupts
	.type	SuspendAllInterrupts, @function
SuspendAllInterrupts:
.LFB63:
	.loc 2 109 0
	.cfi_startproc
/* prologue: function */
/* frame size = 0 */
/* stack size = 0 */
.L__stack_usage = 0
	.loc 2 111 0
	lds r30,CDB
	lds r31,CDB+1
.LVL6:
	.loc 2 115 0
	ldd r24,Z+15
	cpse r24,__zero_reg__
	rjmp .L13
.LBB479:
.LBB480:
.LBB481:
	.loc 3 111 0
	in r24,__SREG__
.LVL7:
.LBB482:
.LBB483:
	.loc 3 100 0
/* #APP */
 ;  100 "/home/user/lab-osek/OSEK-GroupProject/erika/src/ee_hal_internal.h" 1
	cli
 ;  0 "" 2
.LVL8:
/* #NOAPP */
.LBE483:
.LBE482:
.LBE481:
.LBE480:
	.loc 2 117 0
	std Z+13,r24
	.loc 2 118 0
	ldd r24,Z+15
.L18:
.LBE479:
	.loc 2 120 0
	subi r24,lo8(-(1))
	std Z+15,r24
.LVL9:
	.loc 2 125 0
	rjmp .L12
.LVL10:
.L13:
	.loc 2 119 0
	cpi r24,lo8(-1)
	brne .L18
.L12:
/* epilogue start */
	.loc 2 126 0
	ret
	.cfi_endproc
.LFE63:
	.size	SuspendAllInterrupts, .-SuspendAllInterrupts
	.section	.text.ResumeAllInterrupts,"ax",@progbits
.global	ResumeAllInterrupts
	.type	ResumeAllInterrupts, @function
ResumeAllInterrupts:
.LFB64:
	.loc 2 133 0
	.cfi_startproc
/* prologue: function */
/* frame size = 0 */
/* stack size = 0 */
.L__stack_usage = 0
	.loc 2 135 0
	lds r30,CDB
	lds r31,CDB+1
.LVL11:
	.loc 2 139 0
	ldd r24,Z+15
	tst r24
	breq .L19
	.loc 2 140 0
	subi r24,lo8(-(-1))
	std Z+15,r24
	cpse r24,__zero_reg__
	rjmp .L19
	.loc 2 141 0
	ldd r24,Z+13
.LVL12:
.LBB484:
.LBB485:
	.loc 3 118 0
	.loc 3 119 0
	out __SREG__,r24
.LVL13:
.L19:
/* epilogue start */
.LBE485:
.LBE484:
	.loc 2 148 0
	ret
	.cfi_endproc
.LFE64:
	.size	ResumeAllInterrupts, .-ResumeAllInterrupts
	.section	.text.SuspendOSInterrupts,"ax",@progbits
.global	SuspendOSInterrupts
	.type	SuspendOSInterrupts, @function
SuspendOSInterrupts:
.LFB65:
	.loc 2 155 0
	.cfi_startproc
/* prologue: function */
/* frame size = 0 */
/* stack size = 0 */
.L__stack_usage = 0
	.loc 2 157 0
	lds r30,CDB
	lds r31,CDB+1
.LVL14:
	.loc 2 161 0
	ldd r24,Z+16
	cpse r24,__zero_reg__
	rjmp .L24
.LBB486:
.LBB487:
.LBB488:
.LBB489:
	.loc 3 111 0
	in r24,__SREG__
.LVL15:
.LBB490:
.LBB491:
	.loc 3 100 0
/* #APP */
 ;  100 "/home/user/lab-osek/OSEK-GroupProject/erika/src/ee_hal_internal.h" 1
	cli
 ;  0 "" 2
.LVL16:
/* #NOAPP */
.LBE491:
.LBE490:
.LBE489:
.LBE488:
.LBE487:
	.loc 2 163 0
	std Z+14,r24
	.loc 2 164 0
	ldd r24,Z+16
.L29:
.LBE486:
	.loc 2 166 0
	subi r24,lo8(-(1))
	std Z+16,r24
.LVL17:
	.loc 2 171 0
	rjmp .L23
.LVL18:
.L24:
	.loc 2 165 0
	cpi r24,lo8(-1)
	brne .L29
.L23:
/* epilogue start */
	.loc 2 172 0
	ret
	.cfi_endproc
.LFE65:
	.size	SuspendOSInterrupts, .-SuspendOSInterrupts
	.section	.text.ResumeOSInterrupts,"ax",@progbits
.global	ResumeOSInterrupts
	.type	ResumeOSInterrupts, @function
ResumeOSInterrupts:
.LFB66:
	.loc 2 179 0
	.cfi_startproc
/* prologue: function */
/* frame size = 0 */
/* stack size = 0 */
.L__stack_usage = 0
	.loc 2 181 0
	lds r30,CDB
	lds r31,CDB+1
.LVL19:
	.loc 2 185 0
	ldd r24,Z+16
	tst r24
	breq .L30
	.loc 2 186 0
	subi r24,lo8(-(-1))
	std Z+16,r24
	cpse r24,__zero_reg__
	rjmp .L30
	.loc 2 187 0
	ldd r24,Z+14
.LVL20:
.LBB492:
.LBB493:
.LBB494:
	.loc 3 118 0
	.loc 3 119 0
	out __SREG__,r24
.LVL21:
.L30:
/* epilogue start */
.LBE494:
.LBE493:
.LBE492:
	.loc 2 194 0
	ret
	.cfi_endproc
.LFE66:
	.size	ResumeOSInterrupts, .-ResumeOSInterrupts
	.section	.text.StartOS,"ax",@progbits
.global	StartOS
	.type	StartOS, @function
StartOS:
.LFB67:
	.loc 2 201 0
	.cfi_startproc
.LVL22:
	push r4
.LCFI0:
	.cfi_def_cfa_offset 3
	.cfi_offset 4, -2
	push r5
.LCFI1:
	.cfi_def_cfa_offset 4
	.cfi_offset 5, -3
	push r6
.LCFI2:
	.cfi_def_cfa_offset 5
	.cfi_offset 6, -4
	push r7
.LCFI3:
	.cfi_def_cfa_offset 6
	.cfi_offset 7, -5
	push r8
.LCFI4:
	.cfi_def_cfa_offset 7
	.cfi_offset 8, -6
	push r9
.LCFI5:
	.cfi_def_cfa_offset 8
	.cfi_offset 9, -7
	push r10
.LCFI6:
	.cfi_def_cfa_offset 9
	.cfi_offset 10, -8
	push r11
.LCFI7:
	.cfi_def_cfa_offset 10
	.cfi_offset 11, -9
	push r12
.LCFI8:
	.cfi_def_cfa_offset 11
	.cfi_offset 12, -10
	push r13
.LCFI9:
	.cfi_def_cfa_offset 12
	.cfi_offset 13, -11
	push r14
.LCFI10:
	.cfi_def_cfa_offset 13
	.cfi_offset 14, -12
	push r15
.LCFI11:
	.cfi_def_cfa_offset 14
	.cfi_offset 15, -13
	push r16
.LCFI12:
	.cfi_def_cfa_offset 15
	.cfi_offset 16, -14
	push r17
.LCFI13:
	.cfi_def_cfa_offset 16
	.cfi_offset 17, -15
	push r28
.LCFI14:
	.cfi_def_cfa_offset 17
	.cfi_offset 28, -16
	push r29
.LCFI15:
	.cfi_def_cfa_offset 18
	.cfi_offset 29, -17
	rcall .
.LCFI16:
	.cfi_def_cfa_offset 20
	in r28,__SP_L__
	in r29,__SP_H__
.LCFI17:
	.cfi_def_cfa_register 28
/* prologue: function */
/* frame size = 2 */
/* stack size = 18 */
.L__stack_usage = 18
	.loc 2 204 0
	lds r16,CDB
	lds r17,CDB+1
.LVL23:
.LBB520:
.LBB521:
.LBB522:
.LBB523:
	.loc 3 111 0
	in r25,__SREG__
.LVL24:
.LBB524:
.LBB525:
	.loc 3 100 0
/* #APP */
 ;  100 "/home/user/lab-osek/OSEK-GroupProject/erika/src/ee_hal_internal.h" 1
	cli
 ;  0 "" 2
.LVL25:
/* #NOAPP */
.LBE525:
.LBE524:
.LBE523:
.LBE522:
.LBE521:
.LBE520:
	.loc 2 211 0
	movw r26,r16
	adiw r26,8
	ld r18,X+
	ld r19,X
	or r18,r19
	breq .+2
	rjmp .L35
	mov r8,r24
.LBB526:
.LBB527:
	.loc 3 168 0
	ldi r24,lo8(gs(osEE_atmega_intvect))
	ldi r25,hi8(gs(osEE_atmega_intvect))
.LVL26:
	std Y+2,r25
	std Y+1,r24
	.loc 3 172 0
	call osEE_avr8_system_timer_init
.LVL27:
.LBE527:
.LBE526:
.LBB528:
	.loc 2 215 0
	lds r10,CDB+4
	lds r11,CDB+4+1
.LVL28:
	.loc 2 235 0
	ldi r24,lo8(1)
	ldi r25,0
	movw r30,r16
	std Z+9,r25
	std Z+8,r24
	.loc 2 236 0
	std Z+10,r8
.LVL29:
.LBB529:
.LBB530:
	.loc 1 283 0
	call StartupHook
.LVL30:
.LBE530:
.LBE529:
.LBB531:
	.loc 2 244 0
	lds r14,CDB+12
	lds r15,CDB+12+1
.LVL31:
	.loc 2 248 0
	mov r13,__zero_reg__
	mov r12,__zero_reg__
	ldi r31,lo8(4)
	mul r8,r31
	movw r8,r0
	clr __zero_reg__
.LVL32:
	add r14,r8
	adc r15,r9
	movw r6,r14
	ldi r24,2
	add r6,r24
	adc r7,__zero_reg__
.LBB532:
	.loc 2 252 0
	ldi r20,lo8(6)
	mov r5,r20
.LVL33:
.L36:
.LBE532:
	.loc 2 248 0 discriminator 1
	movw r30,r6
	ld r24,Z
	ldd r25,Z+1
	cp r12,r24
	cpc r13,r25
	brlo .L37
.LVL34:
.LBE531:
.LBB534:
	.loc 2 271 0
	lds r14,CDB+8
	lds r15,CDB+8+1
.LVL35:
	.loc 2 274 0
	movw r6,r16
	ldi r31,2
	add r6,r31
	adc r7,__zero_reg__
.LVL36:
	.loc 2 288 0
	mov r13,__zero_reg__
	mov r12,__zero_reg__
.LVL37:
	add r14,r8
	adc r15,r9
	movw r4,r14
	ldi r24,2
	add r4,r24
	adc r5,__zero_reg__
.LBB535:
	.loc 2 296 0
	clr r8
	inc r8
	mov r9,__zero_reg__
.LVL38:
.L38:
.LBE535:
	.loc 2 288 0 discriminator 1
	movw r30,r4
	ld r24,Z
	ldd r25,Z+1
	cp r12,r24
	cpc r13,r25
	brlo .L39
.LVL39:
.LBE534:
	.loc 2 311 0
	movw r26,r16
	adiw r26,8
	ld r24,X+
	ld r25,X
	sbiw r26,8+1
	sbiw r24,1
	brne .L40
	.loc 2 312 0
	ldi r24,lo8(2)
	ldi r25,0
	adiw r26,8+1
	st X,r25
	st -X,r24
	sbiw r26,8
.L40:
.LVL40:
	.loc 2 320 0
	movw r30,r16
	ldd r24,Z+8
	ldd r25,Z+9
	sbiw r24,2
	brne .L41
.LVL41:
.LBB539:
.LBB540:
	.file 4 "/home/user/lab-osek/OSEK-GroupProject/erika/src/ee_std_change_context.h"
	.loc 4 145 0
	movw r26,r10
	adiw r26,2
	ld r22,X+
	ld r23,X
	movw r20,r22
	movw r24,r10
	call osEE_hal_save_ctx_and_ready2stacked
.LVL42:
.L41:
.LBE540:
.LBE539:
	.loc 2 345 0
	movw r30,r16
	ldd r24,Z+8
	ldd r25,Z+9
	sbiw r24,2
	brne .L43
.LVL43:
.LBB541:
.LBB542:
	.loc 3 105 0
/* #APP */
 ;  105 "/home/user/lab-osek/OSEK-GroupProject/erika/src/ee_hal_internal.h" 1
	sei
 ;  0 "" 2
.LVL44:
/* #NOAPP */
.L43:
.LBE542:
.LBE541:
	.loc 2 343 0
	ldi r25,0
	ldi r24,0
.LBE528:
	.loc 2 369 0
	rjmp .L34
.LVL45:
.L37:
.LBB545:
.LBB543:
.LBB533:
	.loc 2 250 0 discriminator 3
	movw r26,r14
	ld r30,X+
	ld r31,X
.LVL46:
	.loc 2 252 0 discriminator 3
	mul r5,r12
	movw r24,r0
	mul r5,r13
	add r25,r0
	clr __zero_reg__
	add r30,r24
	adc r31,r25
.LVL47:
	ld r26,Z
	ldd r27,Z+1
.LVL48:
	.loc 2 255 0 discriminator 3
	ldd r18,Z+4
	ldd r19,Z+5
	ldd r20,Z+2
	ldd r21,Z+3
	movw r22,r26
	adiw r26,2
	ld r24,X+
	ld r25,X
	call osEE_alarm_set_rel
.LVL49:
.LBE533:
	.loc 2 248 0 discriminator 3
	ldi r27,-1
	sub r12,r27
	sbc r13,r27
.LVL50:
	rjmp .L36
.LVL51:
.L39:
.LBE543:
.LBB544:
.LBB538:
	.loc 2 290 0 discriminator 3
	movw r26,r14
	ld r30,X+
	ld r31,X
	movw r24,r12
	lsl r24
	rol r25
	add r30,r24
	adc r31,r25
	ld r20,Z
	ldd r21,Z+1
.LVL52:
	.loc 2 292 0 discriminator 3
	movw r26,r20
	adiw r26,4
	ld r30,X+
	ld r31,X
.LVL53:
	.loc 2 295 0 discriminator 3
	ld r24,Z
	subi r24,lo8(-(1))
	st Z,r24
	.loc 2 296 0 discriminator 3
	std Z+3,r9
	std Z+2,r8
.LVL54:
.LBB536:
.LBB537:
	.file 5 "/home/user/lab-osek/OSEK-GroupProject/erika/inc/ee_scheduler_types.h"
	.loc 5 82 0 discriminator 3
	movw r30,r16
.LVL55:
	ldd r22,Z+4
	ldd r23,Z+5
.LVL56:
	.loc 5 83 0 discriminator 3
	movw r26,r22
	ld r24,X+
	ld r25,X
	sbiw r26,1
	std Z+5,r25
	std Z+4,r24
	.loc 5 84 0 discriminator 3
	st X+,__zero_reg__
	st X,__zero_reg__
.LVL57:
.LBE537:
.LBE536:
	.loc 2 298 0 discriminator 3
	movw r24,r6
	call osEE_scheduler_rq_insert
.LVL58:
.LBE538:
	.loc 2 288 0 discriminator 3
	ldi r27,-1
	sub r12,r27
	sbc r13,r27
.LVL59:
	rjmp .L38
.LVL60:
.L35:
.LBE544:
.LBE545:
.LBB546:
.LBB547:
.LBB548:
.LBB549:
	.loc 3 118 0
	.loc 3 119 0
	out __SREG__,r25
.LVL61:
.LBE549:
.LBE548:
.LBE547:
.LBE546:
	.loc 2 359 0
	ldi r24,lo8(1)
	ldi r25,0
.LVL62:
.L34:
/* epilogue start */
	.loc 2 370 0
	pop __tmp_reg__
	pop __tmp_reg__
	pop r29
	pop r28
	pop r17
	pop r16
	pop r15
	pop r14
	pop r13
	pop r12
	pop r11
	pop r10
	pop r9
	pop r8
	pop r7
	pop r6
	pop r5
	pop r4
	ret
	.cfi_endproc
.LFE67:
	.size	StartOS, .-StartOS
	.section	.text.GetActiveApplicationMode,"ax",@progbits
.global	GetActiveApplicationMode
	.type	GetActiveApplicationMode, @function
GetActiveApplicationMode:
.LFB68:
	.loc 2 377 0
	.cfi_startproc
/* prologue: function */
/* frame size = 0 */
/* stack size = 0 */
.L__stack_usage = 0
	.loc 2 380 0
	lds r30,CDB
	lds r31,CDB+1
.LVL63:
	.loc 2 384 0
	ldd r24,Z+8
	ldd r25,Z+9
	or r24,r25
	breq .L46
	.loc 2 385 0
	ldd r24,Z+10
.LVL64:
	ret
.LVL65:
.L46:
	.loc 2 387 0
	ldi r24,lo8(-1)
.LVL66:
/* epilogue start */
	.loc 2 393 0
	ret
	.cfi_endproc
.LFE68:
	.size	GetActiveApplicationMode, .-GetActiveApplicationMode
	.section	.text.ActivateTask,"ax",@progbits
.global	ActivateTask
	.type	ActivateTask, @function
ActivateTask:
.LFB69:
	.loc 2 400 0
	.cfi_startproc
.LVL67:
	push r28
.LCFI18:
	.cfi_def_cfa_offset 3
	.cfi_offset 28, -2
/* prologue: function */
/* frame size = 0 */
/* stack size = 1 */
.L__stack_usage = 1
.LVL68:
.LBB550:
.LBB551:
	.loc 1 215 0
	ldi r25,0
.LBE551:
.LBE550:
	.loc 2 409 0
	lds r18,KDB+6
	lds r19,KDB+6+1
	cp r24,r18
	cpc r25,r19
	brsh .L50
.LBB552:
	.loc 2 414 0
	lds r18,KDB+2
	lds r19,KDB+2+1
	lsl r24
	rol r25
.LVL69:
	add r24,r18
	adc r25,r19
	movw r30,r24
	ld r20,Z
	ldd r21,Z+1
.LVL70:
	.loc 2 418 0
	movw r30,r20
	ldd r24,Z+7
	ldd r25,Z+8
	sbiw r24,2
	brsh .L50
.LBB553:
.LBB554:
.LBB555:
.LBB556:
.LBB557:
	.loc 3 111 0
	in r28,__SREG__
.LVL71:
.LBB558:
.LBB559:
	.loc 3 100 0
/* #APP */
 ;  100 "/home/user/lab-osek/OSEK-GroupProject/erika/src/ee_hal_internal.h" 1
	cli
 ;  0 "" 2
.LVL72:
/* #NOAPP */
.LBE559:
.LBE558:
.LBE557:
.LBE556:
.LBE555:
.LBE554:
	.loc 2 421 0
	ldi r18,lo8(1)
	ldi r19,0
	ldi r22,lo8(CDB)
	ldi r23,hi8(CDB)
	ldi r24,lo8(KDB)
	ldi r25,hi8(KDB)
	call osEE_scheduler_task_activated
.LVL73:
.LBB560:
.LBB561:
.LBB562:
.LBB563:
	.loc 3 118 0
	.loc 3 119 0
	out __SREG__,r28
.LVL74:
.L47:
/* epilogue start */
.LBE563:
.LBE562:
.LBE561:
.LBE560:
.LBE553:
.LBE552:
	.loc 2 451 0
	pop r28
	ret
.L50:
	.loc 2 410 0
	ldi r24,lo8(3)
	ldi r25,0
.LVL75:
	.loc 2 450 0
	rjmp .L47
	.cfi_endproc
.LFE69:
	.size	ActivateTask, .-ActivateTask
	.section	.text.ChainTask,"ax",@progbits
.global	ChainTask
	.type	ChainTask, @function
ChainTask:
.LFB70:
	.loc 2 459 0
	.cfi_startproc
.LVL76:
	push r17
.LCFI19:
	.cfi_def_cfa_offset 3
	.cfi_offset 17, -2
	push r28
.LCFI20:
	.cfi_def_cfa_offset 4
	.cfi_offset 28, -3
	push r29
.LCFI21:
	.cfi_def_cfa_offset 5
	.cfi_offset 29, -4
/* prologue: function */
/* frame size = 0 */
/* stack size = 3 */
.L__stack_usage = 3
.LVL77:
.LBB564:
.LBB565:
	.loc 1 215 0
	ldi r25,0
.LBE565:
.LBE564:
	.loc 2 468 0
	lds r18,KDB+6
	lds r19,KDB+6+1
	cp r24,r18
	cpc r25,r19
	brlo .+2
	rjmp .L59
.LVL78:
.LBB566:
.LBB567:
.LBB568:
	.loc 1 92 0
	lds r28,CDB
	lds r29,CDB+1
	ld r30,Y
	ldd r31,Y+1
.LVL79:
.LBE568:
.LBE567:
	.loc 2 482 0
	ldd r18,Z+7
	ldd r19,Z+8
	cpi r18,2
	cpc r19,__zero_reg__
	brsh .L57
	.loc 2 486 0
	ldd r26,Z+4
	ldd r27,Z+5
	adiw r26,4
	ld r18,X+
	ld r19,X
	or r18,r19
	brne .L58
	.loc 2 472 0
	lds r18,KDB+2
	lds r19,KDB+2+1
	lsl r24
	rol r25
.LVL80:
	add r24,r18
	adc r25,r19
	movw r26,r24
	ld r20,X+
	ld r21,X
	.loc 2 498 0
	movw r26,r20
	adiw r26,7
	ld r24,X+
	ld r25,X
	sbiw r24,2
	brsh .L59
.LBB569:
.LBB570:
.LBB571:
.LBB572:
.LBB573:
	.loc 3 111 0
	in r17,__SREG__
.LVL81:
.LBB574:
.LBB575:
	.loc 3 100 0
/* #APP */
 ;  100 "/home/user/lab-osek/OSEK-GroupProject/erika/src/ee_hal_internal.h" 1
	cli
 ;  0 "" 2
.LVL82:
/* #NOAPP */
.LBE575:
.LBE574:
.LBE573:
.LBE572:
.LBE571:
.LBE570:
	.loc 2 501 0
	cp r30,r20
	cpc r31,r21
	brne .L53
	.loc 2 503 0
	ldd __tmp_reg__,Z+4
	ldd r31,Z+5
	mov r30,__tmp_reg__
.LVL83:
	ldi r24,lo8(5)
	ldi r25,0
	std Z+3,r25
	std Z+2,r24
.LVL84:
.L54:
.LBB576:
.LBB577:
	.loc 4 136 0
	ld r30,Y
	ldd r31,Y+1
	ldi r22,lo8(gs(osEE_scheduler_task_end))
	ldi r23,hi8(gs(osEE_scheduler_task_end))
	ldd r24,Z+2
	ldd r25,Z+3
	call osEE_hal_terminate_ctx
.LVL85:
.L53:
.LBE577:
.LBE576:
	.loc 2 506 0
	ldi r19,0
	ldi r18,0
	ldi r22,lo8(CDB)
	ldi r23,hi8(CDB)
	ldi r24,lo8(KDB)
	ldi r25,hi8(KDB)
	call osEE_scheduler_task_activated
.LVL86:
	.loc 2 508 0
	sbiw r24,0
	breq .L54
.LVL87:
.LBB578:
.LBB579:
.LBB580:
.LBB581:
	.loc 3 118 0
	.loc 3 119 0
	out __SREG__,r17
.LVL88:
.L51:
/* epilogue start */
.LBE581:
.LBE580:
.LBE579:
.LBE578:
.LBE569:
.LBE566:
	.loc 2 541 0
	pop r29
	pop r28
	pop r17
	ret
.LVL89:
.L57:
.LBB582:
	.loc 2 483 0
	ldi r24,lo8(2)
	ldi r25,0
.LVL90:
	rjmp .L51
.LVL91:
.L58:
	.loc 2 493 0
	ldi r24,lo8(6)
	ldi r25,0
.LVL92:
	rjmp .L51
.LVL93:
.L59:
.LBE582:
	.loc 2 469 0
	ldi r24,lo8(3)
	ldi r25,0
.LVL94:
	.loc 2 540 0
	rjmp .L51
	.cfi_endproc
.LFE70:
	.size	ChainTask, .-ChainTask
	.section	.text.TerminateTask,"ax",@progbits
.global	TerminateTask
	.type	TerminateTask, @function
TerminateTask:
.LFB71:
	.loc 2 548 0
	.cfi_startproc
/* prologue: function */
/* frame size = 0 */
/* stack size = 0 */
.L__stack_usage = 0
.LVL95:
	.loc 2 555 0
	lds r30,CDB
	lds r31,CDB+1
	ld __tmp_reg__,Z+
	ld r31,Z
	mov r30,__tmp_reg__
.LVL96:
	.loc 2 573 0
	ldd r24,Z+7
	ldd r25,Z+8
	sbiw r24,2
	brsh .L62
	.loc 2 584 0
	ldd r26,Z+4
	ldd r27,Z+5
	adiw r26,4
	ld r24,X+
	ld r25,X
	or r24,r25
	brne .L63
.LBB583:
.LBB584:
.LBB585:
.LBB586:
.LBB587:
	.loc 3 111 0
	in r24,__SREG__
.LBB588:
.LBB589:
	.loc 3 100 0
/* #APP */
 ;  100 "/home/user/lab-osek/OSEK-GroupProject/erika/src/ee_hal_internal.h" 1
	cli
 ;  0 "" 2
.LVL97:
/* #NOAPP */
.LBE589:
.LBE588:
.LBE587:
.LBE586:
.LBE585:
.LBE584:
.LBB590:
.LBB591:
	.loc 4 136 0
	ldi r22,lo8(gs(osEE_scheduler_task_end))
	ldi r23,hi8(gs(osEE_scheduler_task_end))
	ldd r24,Z+2
	ldd r25,Z+3
	call osEE_hal_terminate_ctx
.LVL98:
.L62:
.LBE591:
.LBE590:
.LBE583:
	.loc 2 581 0
	ldi r24,lo8(2)
	ldi r25,0
	ret
.LVL99:
.L63:
	.loc 2 591 0
	ldi r24,lo8(6)
	ldi r25,0
.LVL100:
/* epilogue start */
	.loc 2 625 0
	ret
	.cfi_endproc
.LFE71:
	.size	TerminateTask, .-TerminateTask
	.section	.text.Schedule,"ax",@progbits
.global	Schedule
	.type	Schedule, @function
Schedule:
.LFB72:
	.loc 2 632 0
	.cfi_startproc
	push r15
.LCFI22:
	.cfi_def_cfa_offset 3
	.cfi_offset 15, -2
	push r16
.LCFI23:
	.cfi_def_cfa_offset 4
	.cfi_offset 16, -3
	push r17
.LCFI24:
	.cfi_def_cfa_offset 5
	.cfi_offset 17, -4
	push r28
.LCFI25:
	.cfi_def_cfa_offset 6
	.cfi_offset 28, -5
	push r29
.LCFI26:
	.cfi_def_cfa_offset 7
	.cfi_offset 29, -6
/* prologue: function */
/* frame size = 0 */
/* stack size = 5 */
.L__stack_usage = 5
.LVL101:
	.loc 2 636 0
	lds r30,CDB
	lds r31,CDB+1
	ld r28,Z
	ldd r29,Z+1
.LVL102:
	.loc 2 642 0
	ldd r24,Y+7
	ldd r25,Y+8
	sbiw r24,2
	brsh .L66
	.loc 2 637 0
	ldd r16,Y+4
	ldd r17,Y+5
	.loc 2 646 0
	movw r30,r16
	ldd r24,Z+4
	ldd r25,Z+5
	or r24,r25
	brne .L67
	.loc 2 651 0
	ldd r25,Z+1
	ldd r24,Y+12
	cpse r25,r24
	rjmp .L68
.LBB592:
.LBB593:
.LBB594:
.LBB595:
.LBB596:
	.loc 3 111 0
	in r15,__SREG__
.LVL103:
.LBB597:
.LBB598:
	.loc 3 100 0
/* #APP */
 ;  100 "/home/user/lab-osek/OSEK-GroupProject/erika/src/ee_hal_internal.h" 1
	cli
 ;  0 "" 2
.LVL104:
/* #NOAPP */
.LBE598:
.LBE597:
.LBE596:
.LBE595:
.LBE594:
.LBE593:
	.loc 2 657 0
	ldd r24,Y+11
	std Z+1,r24
.LVL105:
	.loc 2 659 0
	ldi r22,lo8(CDB)
	ldi r23,hi8(CDB)
.LVL106:
	ldi r24,lo8(KDB)
	ldi r25,hi8(KDB)
	call osEE_scheduler_task_preemption_point
.LVL107:
	.loc 2 661 0
	ldd r24,Y+12
	movw r30,r16
	std Z+1,r24
.LBB599:
.LBB600:
.LBB601:
.LBB602:
	.loc 3 118 0
	.loc 3 119 0
	out __SREG__,r15
.LVL108:
.L68:
.LBE602:
.LBE601:
.LBE600:
.LBE599:
.LBE592:
	.loc 2 669 0
	ldi r25,0
	ldi r24,0
.LVL109:
	.loc 2 684 0
	rjmp .L64
.LVL110:
.L66:
	.loc 2 643 0
	ldi r24,lo8(2)
	ldi r25,0
.LVL111:
.L64:
/* epilogue start */
	.loc 2 685 0
	pop r29
	pop r28
.LVL112:
	pop r17
	pop r16
	pop r15
	ret
.LVL113:
.L67:
	.loc 2 647 0
	ldi r24,lo8(6)
	ldi r25,0
	rjmp .L64
	.cfi_endproc
.LFE72:
	.size	Schedule, .-Schedule
	.section	.text.GetResource,"ax",@progbits
.global	GetResource
	.type	GetResource, @function
GetResource:
.LFB73:
	.loc 2 693 0
	.cfi_startproc
.LVL114:
	push r28
.LCFI27:
	.cfi_def_cfa_offset 3
	.cfi_offset 28, -2
	push r29
.LCFI28:
	.cfi_def_cfa_offset 4
	.cfi_offset 29, -3
/* prologue: function */
/* frame size = 0 */
/* stack size = 2 */
.L__stack_usage = 2
.LVL115:
.LBB603:
.LBB604:
	.loc 1 230 0
	ldi r25,0
.LBE604:
.LBE603:
	.loc 2 702 0
	lds r18,KDB+12
	lds r19,KDB+12+1
	cp r24,r18
	cpc r25,r19
	brsh .L72
.LBB605:
	.loc 2 707 0
	lds r18,KDB+10
	lds r19,KDB+10+1
	lsl r24
	rol r25
.LVL116:
	add r24,r18
	adc r25,r19
	movw r30,r24
	ld r28,Z
	ldd r29,Z+1
.LVL117:
	.loc 2 709 0
	ld r26,Y
	ldd r27,Y+1
.LVL118:
	.loc 2 718 0
	adiw r26,3
	ld r24,X+
	ld r25,X
	sbiw r26,3+1
	or r24,r25
	brne .L74
.LBB606:
.LBB607:
	.loc 1 92 0 discriminator 1
	lds r30,CDB
	lds r31,CDB+1
	ld __tmp_reg__,Z+
	ld r31,Z
	mov r30,__tmp_reg__
.LBE607:
.LBE606:
	.loc 2 715 0 discriminator 1
	ldd r24,Y+2
	.loc 2 718 0 discriminator 1
	ldd r25,Z+11
	cp r24,r25
	brlo .L74
	.loc 2 713 0
	ldd __tmp_reg__,Z+4
	ldd r31,Z+5
	mov r30,__tmp_reg__
.LBB608:
	.loc 2 724 0
	ldd r25,Z+1
.LVL119:
	.loc 2 726 0
	cp r25,r24
	brsh .L71
.LVL120:
	.loc 2 729 0
	std Z+1,r24
.LVL121:
.L71:
	.loc 2 732 0
	ldd r18,Z+4
	ldd r19,Z+5
	adiw r26,1
	st X,r19
	st -X,r18
	.loc 2 733 0
	adiw r26,2
	st X,r25
	sbiw r26,2
	.loc 2 735 0
	ldi r24,lo8(1)
	ldi r25,0
.LVL122:
	adiw r26,3+1
	st X,r25
	st -X,r24
	sbiw r26,3
	.loc 2 740 0
	std Z+5,r29
	std Z+4,r28
.LVL123:
	.loc 2 742 0
	ldi r25,0
.LVL124:
	ldi r24,0
.LVL125:
.L69:
/* epilogue start */
.LBE608:
.LBE605:
	.loc 2 768 0
	pop r29
	pop r28
	ret
.LVL126:
.L72:
	.loc 2 703 0
	ldi r24,lo8(3)
	ldi r25,0
.LVL127:
	rjmp .L69
.LVL128:
.L74:
.LBB609:
	.loc 2 719 0
	ldi r24,lo8(1)
	ldi r25,0
.LVL129:
.LBE609:
	.loc 2 767 0
	rjmp .L69
	.cfi_endproc
.LFE73:
	.size	GetResource, .-GetResource
	.section	.text.ReleaseResource,"ax",@progbits
.global	ReleaseResource
	.type	ReleaseResource, @function
ReleaseResource:
.LFB74:
	.loc 2 775 0
	.cfi_startproc
.LVL130:
	push r17
.LCFI29:
	.cfi_def_cfa_offset 3
	.cfi_offset 17, -2
	push r28
.LCFI30:
	.cfi_def_cfa_offset 4
	.cfi_offset 28, -3
	push r29
.LCFI31:
	.cfi_def_cfa_offset 5
	.cfi_offset 29, -4
/* prologue: function */
/* frame size = 0 */
/* stack size = 3 */
.L__stack_usage = 3
.LVL131:
.LBB610:
.LBB611:
	.loc 1 230 0
	ldi r25,0
.LBE611:
.LBE610:
	.loc 2 784 0
	lds r18,KDB+12
	lds r19,KDB+12+1
	cp r24,r18
	cpc r25,r19
	brlo .+2
	rjmp .L79
.LVL132:
.LBB612:
	.loc 2 793 0
	lds r18,KDB+10
	lds r19,KDB+10+1
	lsl r24
	rol r25
.LVL133:
	add r24,r18
	adc r25,r19
	movw r28,r24
	ld r24,Y
	ldd r25,Y+1
.LVL134:
	.loc 2 795 0
	movw r30,r24
	ld r26,Z
	ldd r27,Z+1
.LVL135:
	.loc 2 798 0
	adiw r26,3
	ld r18,X+
	ld r19,X
	sbiw r26,3+1
	or r18,r19
	breq .L81
.LBB613:
.LBB614:
	.loc 1 92 0 discriminator 1
	lds r30,CDB
	lds r31,CDB+1
	ld r20,Z
	ldd r21,Z+1
.LBE614:
.LBE613:
	.loc 2 791 0 discriminator 1
	movw r28,r20
	ldd r30,Y+4
	ldd r31,Y+5
	.loc 2 798 0 discriminator 1
	ldd r18,Z+4
	ldd r19,Z+5
	cp r18,r24
	cpc r19,r25
	brne .L81
.LBB615:
.LBB616:
.LBB617:
.LBB618:
.LBB619:
	.loc 3 111 0
	in r17,__SREG__
.LVL136:
.LBB620:
.LBB621:
	.loc 3 100 0
/* #APP */
 ;  100 "/home/user/lab-osek/OSEK-GroupProject/erika/src/ee_hal_internal.h" 1
	cli
 ;  0 "" 2
.LVL137:
/* #NOAPP */
.LBE621:
.LBE620:
.LBE619:
.LBE618:
.LBE617:
.LBE616:
	.loc 2 806 0
	ldd r24,Z+4
	ldd r25,Z+5
.LVL138:
	movw r28,r24
	ld r24,Y
	ldd r25,Y+1
	movw r28,r24
	ld r24,Y
	ldd r25,Y+1
	std Z+5,r25
	std Z+4,r24
	.loc 2 809 0
	or r24,r25
	breq .L77
.LVL139:
.LBB622:
	.loc 2 813 0
	adiw r26,2
	ld r24,X
	sbiw r26,2
.LVL140:
.L82:
.LBE622:
.LBB623:
	.loc 2 819 0
	std Z+1,r24
.LVL141:
.LBE623:
	.loc 2 823 0
	adiw r26,3+1
	st X,__zero_reg__
	st -X,__zero_reg__
	sbiw r26,3
	.loc 2 830 0
	ldi r22,lo8(CDB)
	ldi r23,hi8(CDB)
	ldi r24,lo8(KDB)
	ldi r25,hi8(KDB)
	call osEE_scheduler_task_preemption_point
.LVL142:
.LBB624:
.LBB625:
.LBB626:
.LBB627:
	.loc 3 118 0
	.loc 3 119 0
	out __SREG__,r17
.LVL143:
.LBE627:
.LBE626:
.LBE625:
.LBE624:
	.loc 2 834 0
	ldi r25,0
	ldi r24,0
.LVL144:
.L75:
/* epilogue start */
.LBE615:
.LBE612:
	.loc 2 859 0
	pop r29
	pop r28
	pop r17
	ret
.LVL145:
.L77:
.LBB630:
.LBB629:
.LBB628:
	.loc 2 819 0
	movw r28,r20
	ldd r24,Y+12
	rjmp .L82
.LVL146:
.L79:
.LBE628:
.LBE629:
.LBE630:
	.loc 2 785 0
	ldi r24,lo8(3)
	ldi r25,0
.LVL147:
	rjmp .L75
.LVL148:
.L81:
.LBB631:
	.loc 2 799 0
	ldi r24,lo8(5)
	ldi r25,0
.LVL149:
.LBE631:
	.loc 2 858 0
	rjmp .L75
	.cfi_endproc
.LFE74:
	.size	ReleaseResource, .-ReleaseResource
	.section	.text.ShutdownOS,"ax",@progbits
.global	ShutdownOS
	.type	ShutdownOS, @function
ShutdownOS:
.LFB75:
	.loc 2 867 0
	.cfi_startproc
.LVL150:
/* prologue: function */
/* frame size = 0 */
/* stack size = 0 */
.L__stack_usage = 0
	movw r20,r24
	.loc 2 870 0
	lds r30,CDB
	lds r31,CDB+1
.LVL151:
.LBB632:
.LBB633:
.LBB634:
.LBB635:
	.loc 3 111 0
	in r25,__SREG__
.LVL152:
.LBB636:
.LBB637:
	.loc 3 100 0
/* #APP */
 ;  100 "/home/user/lab-osek/OSEK-GroupProject/erika/src/ee_hal_internal.h" 1
	cli
 ;  0 "" 2
.LVL153:
/* #NOAPP */
.LBE637:
.LBE636:
.LBE635:
.LBE634:
.LBE633:
.LBE632:
	.loc 2 876 0
	ldd r18,Z+8
	ldd r19,Z+9
	subi r18,1
	sbc r19,__zero_reg__
	cpi r18,2
	cpc r19,__zero_reg__
	brsh .L84
	.loc 2 878 0
	ldi r24,lo8(3)
	ldi r25,0
.LVL154:
	std Z+9,r25
	std Z+8,r24
.LVL155:
	.loc 2 880 0
	std Z+12,r21
	std Z+11,r20
.LBB638:
.LBB639:
	.loc 3 100 0
/* #APP */
 ;  100 "/home/user/lab-osek/OSEK-GroupProject/erika/src/ee_hal_internal.h" 1
	cli
 ;  0 "" 2
/* #NOAPP */
.L85:
	rjmp .L85
.LVL156:
.L84:
.LBE639:
.LBE638:
.LBB640:
.LBB641:
.LBB642:
.LBB643:
	.loc 3 118 0
	.loc 3 119 0
	out __SREG__,r25
.LVL157:
.LBE643:
.LBE642:
.LBE641:
.LBE640:
	.loc 2 906 0
	ldi r24,lo8(7)
	ldi r25,0
/* epilogue start */
	ret
	.cfi_endproc
.LFE75:
	.size	ShutdownOS, .-ShutdownOS
	.section	.text.GetTaskID,"ax",@progbits
.global	GetTaskID
	.type	GetTaskID, @function
GetTaskID:
.LFB76:
	.loc 2 913 0
	.cfi_startproc
.LVL158:
	push r28
.LCFI32:
	.cfi_def_cfa_offset 3
	.cfi_offset 28, -2
	push r29
.LCFI33:
	.cfi_def_cfa_offset 4
	.cfi_offset 29, -3
/* prologue: function */
/* frame size = 0 */
/* stack size = 2 */
.L__stack_usage = 2
	movw r26,r24
	.loc 2 927 0
	ldi r24,lo8(14)
	ldi r25,0
.LVL159:
	.loc 2 926 0
	sbiw r26,0
	breq .L86
.LVL160:
.LBB644:
.LBB645:
.LBB646:
	.loc 1 92 0
	lds r30,CDB
	lds r31,CDB+1
	ld r28,Z
	ldd r29,Z+1
.LBE646:
.LBE645:
	.loc 2 934 0
	ldd r24,Y+7
	ldd r25,Y+8
	cpi r24,2
	cpc r25,__zero_reg__
	brsh .L88
.L95:
.LBB647:
.LBB648:
	.loc 2 947 0
	ldd r25,Y+6
.LVL161:
.L89:
.LBE648:
.LBE647:
	.loc 2 955 0
	st X,r25
.LVL162:
	.loc 2 956 0
	ldi r25,0
.LVL163:
	ldi r24,0
.LVL164:
.L86:
/* epilogue start */
.LBE644:
	.loc 2 981 0
	pop r29
	pop r28
	ret
.LVL165:
.L88:
.LBB653:
	.loc 2 936 0
	sbiw r24,2
	brne .L94
.LVL166:
.LBB651:
	.loc 2 941 0
	ldd __tmp_reg__,Z+6
	ldd r31,Z+7
	mov r30,__tmp_reg__
.LVL167:
.L91:
.LBB649:
	.loc 2 950 0
	ld __tmp_reg__,Z+
	ld r31,Z
	mov r30,__tmp_reg__
.LVL168:
.LBE649:
	.loc 2 943 0
	sbiw r30,0
	brne .L92
.LVL169:
.L94:
.LBE651:
	.loc 2 930 0
	ldi r25,lo8(-1)
	rjmp .L89
.LVL170:
.L92:
.LBB652:
.LBB650:
	.loc 2 945 0
	ldd r28,Z+2
	ldd r29,Z+3
.LVL171:
	.loc 2 946 0
	ldd r24,Y+7
	ldd r25,Y+8
	sbiw r24,2
	brsh .L91
	rjmp .L95
.LBE650:
.LBE652:
.LBE653:
	.cfi_endproc
.LFE76:
	.size	GetTaskID, .-GetTaskID
	.section	.text.GetTaskState,"ax",@progbits
.global	GetTaskState
	.type	GetTaskState, @function
GetTaskState:
.LFB77:
	.loc 2 989 0
	.cfi_startproc
.LVL172:
	push r28
.LCFI34:
	.cfi_def_cfa_offset 3
	.cfi_offset 28, -2
	push r29
.LCFI35:
	.cfi_def_cfa_offset 4
	.cfi_offset 29, -3
/* prologue: function */
/* frame size = 0 */
/* stack size = 2 */
.L__stack_usage = 2
	movw r30,r22
	.loc 2 1003 0
	sbiw r30,0
	breq .L103
.LVL173:
.LBB654:
.LBB655:
	.loc 1 215 0
	ldi r25,0
.LBE655:
.LBE654:
	.loc 2 1006 0
	lds r18,KDB+6
	lds r19,KDB+6+1
	cp r24,r18
	cpc r25,r19
	brsh .L104
.LVL174:
.LBB656:
	.loc 2 1011 0
	lds r18,KDB+2
	lds r19,KDB+2+1
	lsl r24
	rol r25
.LVL175:
	add r24,r18
	adc r25,r19
	.loc 2 1014 0
	movw r28,r24
	ld r26,Y
	ldd r27,Y+1
	adiw r26,4
	ld __tmp_reg__,X+
	ld r27,X
	mov r26,__tmp_reg__
	.loc 2 1015 0
	adiw r26,2
	ld r24,X+
	ld r25,X
	clr r25
	cpi r24,3
	cpc r25,__zero_reg__
	brsh .L98
	sbiw r24,1
	brlo .L106
	.loc 2 1021 0
	ldi r24,lo8(1)
	ldi r25,0
.L108:
	.loc 2 1028 0
	std Z+1,r25
	st Z,r24
	rjmp .L105
.L98:
	.loc 2 1015 0
	cpi r24,3
	cpc r25,__zero_reg__
	breq .L108
	sbiw r24,6
	brlo .L107
.L105:
	.loc 2 1034 0
	ldi r25,0
	ldi r24,0
.LVL176:
.LBE656:
	.loc 2 1060 0
	rjmp .L96
.LVL177:
.L106:
.LBB657:
	.loc 2 1017 0
	std Z+1,__zero_reg__
	st Z,__zero_reg__
	rjmp .L105
.L107:
	.loc 2 1028 0
	ldi r24,lo8(4)
	ldi r25,0
	rjmp .L108
.LVL178:
.L103:
.LBE657:
	.loc 2 1004 0
	ldi r24,lo8(14)
	ldi r25,0
.LVL179:
.L96:
/* epilogue start */
	.loc 2 1061 0
	pop r29
	pop r28
	ret
.LVL180:
.L104:
	.loc 2 1007 0
	ldi r24,lo8(3)
	ldi r25,0
.LVL181:
	rjmp .L96
	.cfi_endproc
.LFE77:
	.size	GetTaskState, .-GetTaskState
	.section	.text.SetRelAlarm,"ax",@progbits
.global	SetRelAlarm
	.type	SetRelAlarm, @function
SetRelAlarm:
.LFB78:
	.loc 2 1071 0
	.cfi_startproc
.LVL182:
	push r28
.LCFI36:
	.cfi_def_cfa_offset 3
	.cfi_offset 28, -2
	push r29
.LCFI37:
	.cfi_def_cfa_offset 4
	.cfi_offset 29, -3
/* prologue: function */
/* frame size = 0 */
/* stack size = 2 */
.L__stack_usage = 2
.LVL183:
.LBB658:
.LBB659:
	.loc 1 565 0
	ldi r25,0
.LBE659:
.LBE658:
	.loc 2 1081 0
	lds r18,KDB+20
	lds r19,KDB+20+1
	cp r24,r18
	cpc r25,r19
	brsh .L112
.LVL184:
.LBB660:
	.loc 2 1092 0
	cp r22,__zero_reg__
	cpc r23,__zero_reg__
	breq .L116
	.loc 2 1086 0 discriminator 1
	lds r18,KDB+18
	lds r19,KDB+18+1
	lsl r24
	rol r25
.LVL185:
	add r24,r18
	adc r25,r19
	movw r26,r24
	ld r30,X+
	ld r31,X
	.loc 2 1088 0 discriminator 1
	ldd r24,Z+2
	ldd r25,Z+3
	.loc 2 1093 0 discriminator 1
	movw r28,r24
	ldd r18,Y+2
	ldd r19,Y+3
	.loc 2 1092 0 discriminator 1
	cp r18,r22
	cpc r19,r23
	brlo .L116
	.loc 2 1093 0
	cp r20,__zero_reg__
	cpc r21,__zero_reg__
	breq .L111
	.loc 2 1094 0
	ldd r26,Y+6
	ldd r27,Y+7
	cp r20,r26
	cpc r21,r27
	brlo .L116
	.loc 2 1094 0 is_stmt 0 discriminator 1
	cp r18,r20
	cpc r19,r21
	brlo .L116
.L111:
	movw r18,r20
	movw r20,r22
.LVL186:
.LBB661:
.LBB662:
.LBB663:
.LBB664:
.LBB665:
	.loc 3 111 0 is_stmt 1
	in r28,__SREG__
.LVL187:
.LBB666:
.LBB667:
	.loc 3 100 0
/* #APP */
 ;  100 "/home/user/lab-osek/OSEK-GroupProject/erika/src/ee_hal_internal.h" 1
	cli
 ;  0 "" 2
.LVL188:
/* #NOAPP */
.LBE667:
.LBE666:
.LBE665:
.LBE664:
.LBE663:
.LBE662:
	.loc 2 1105 0
	movw r22,r30
.LVL189:
	call osEE_alarm_set_rel
.LVL190:
.LBB668:
.LBB669:
.LBB670:
.LBB671:
	.loc 3 118 0
	.loc 3 119 0
	out __SREG__,r28
.LVL191:
.L109:
/* epilogue start */
.LBE671:
.LBE670:
.LBE669:
.LBE668:
.LBE661:
.LBE660:
	.loc 2 1137 0
	pop r29
	pop r28
	ret
.LVL192:
.L112:
	.loc 2 1082 0
	ldi r24,lo8(3)
	ldi r25,0
.LVL193:
	rjmp .L109
.L116:
.LBB672:
	.loc 2 1098 0
	ldi r24,lo8(8)
	ldi r25,0
.LVL194:
.LBE672:
	.loc 2 1136 0
	rjmp .L109
	.cfi_endproc
.LFE78:
	.size	SetRelAlarm, .-SetRelAlarm
	.section	.text.SetAbsAlarm,"ax",@progbits
.global	SetAbsAlarm
	.type	SetAbsAlarm, @function
SetAbsAlarm:
.LFB79:
	.loc 2 1146 0
	.cfi_startproc
.LVL195:
	push r28
.LCFI38:
	.cfi_def_cfa_offset 3
	.cfi_offset 28, -2
	push r29
.LCFI39:
	.cfi_def_cfa_offset 4
	.cfi_offset 29, -3
/* prologue: function */
/* frame size = 0 */
/* stack size = 2 */
.L__stack_usage = 2
.LVL196:
.LBB673:
.LBB674:
	.loc 1 565 0
	ldi r25,0
.LBE674:
.LBE673:
	.loc 2 1156 0
	lds r18,KDB+20
	lds r19,KDB+20+1
	cp r24,r18
	cpc r25,r19
	brsh .L123
.LBB675:
	.loc 2 1161 0
	lds r18,KDB+18
	lds r19,KDB+18+1
	lsl r24
	rol r25
.LVL197:
	add r24,r18
	adc r25,r19
	movw r26,r24
	ld r30,X+
	ld r31,X
.LVL198:
	.loc 2 1163 0
	ldd r24,Z+2
	ldd r25,Z+3
.LVL199:
	.loc 2 1167 0
	movw r28,r24
	ldd r18,Y+2
	ldd r19,Y+3
	cp r18,r22
	cpc r19,r23
	brlo .L126
	.loc 2 1167 0 is_stmt 0 discriminator 1
	cp r20,__zero_reg__
	cpc r21,__zero_reg__
	breq .L122
	.loc 2 1168 0 is_stmt 1
	ldd r26,Y+6
	ldd r27,Y+7
	cp r20,r26
	cpc r21,r27
	brlo .L126
	.loc 2 1168 0 is_stmt 0 discriminator 1
	cp r18,r20
	cpc r19,r21
	brlo .L126
.L122:
	movw r18,r20
	movw r20,r22
.LVL200:
.LBB676:
.LBB677:
.LBB678:
.LBB679:
.LBB680:
	.loc 3 111 0 is_stmt 1
	in r28,__SREG__
.LVL201:
.LBB681:
.LBB682:
	.loc 3 100 0
/* #APP */
 ;  100 "/home/user/lab-osek/OSEK-GroupProject/erika/src/ee_hal_internal.h" 1
	cli
 ;  0 "" 2
.LVL202:
/* #NOAPP */
.LBE682:
.LBE681:
.LBE680:
.LBE679:
.LBE678:
.LBE677:
	.loc 2 1179 0
	movw r22,r30
.LVL203:
	call osEE_alarm_set_abs
.LVL204:
.LBB683:
.LBB684:
.LBB685:
.LBB686:
	.loc 3 118 0
	.loc 3 119 0
	out __SREG__,r28
.LVL205:
.L120:
/* epilogue start */
.LBE686:
.LBE685:
.LBE684:
.LBE683:
.LBE676:
.LBE675:
	.loc 2 1211 0
	pop r29
	pop r28
	ret
.LVL206:
.L123:
	.loc 2 1157 0
	ldi r24,lo8(3)
	ldi r25,0
.LVL207:
	rjmp .L120
.LVL208:
.L126:
.LBB687:
	.loc 2 1172 0
	ldi r24,lo8(8)
	ldi r25,0
.LVL209:
.LBE687:
	.loc 2 1210 0
	rjmp .L120
	.cfi_endproc
.LFE79:
	.size	SetAbsAlarm, .-SetAbsAlarm
	.section	.text.CancelAlarm,"ax",@progbits
.global	CancelAlarm
	.type	CancelAlarm, @function
CancelAlarm:
.LFB80:
	.loc 2 1218 0
	.cfi_startproc
.LVL210:
	push r28
.LCFI40:
	.cfi_def_cfa_offset 3
	.cfi_offset 28, -2
/* prologue: function */
/* frame size = 0 */
/* stack size = 1 */
.L__stack_usage = 1
.LVL211:
.LBB688:
.LBB689:
	.loc 1 565 0
	ldi r25,0
.LBE689:
.LBE688:
	.loc 2 1228 0
	lds r18,KDB+20
	lds r19,KDB+20+1
	cp r24,r18
	cpc r25,r19
	brsh .L132
.LBB690:
	.loc 2 1232 0
	lds r18,KDB+18
	lds r19,KDB+18+1
	lsl r24
	rol r25
.LVL212:
	add r24,r18
	adc r25,r19
	movw r30,r24
	ld r24,Z
	ldd r25,Z+1
.LVL213:
.LBB691:
.LBB692:
.LBB693:
.LBB694:
	.loc 3 111 0
	in r28,__SREG__
.LVL214:
.LBB695:
.LBB696:
	.loc 3 100 0
/* #APP */
 ;  100 "/home/user/lab-osek/OSEK-GroupProject/erika/src/ee_hal_internal.h" 1
	cli
 ;  0 "" 2
.LVL215:
/* #NOAPP */
.LBE696:
.LBE695:
.LBE694:
.LBE693:
.LBE692:
.LBE691:
	.loc 2 1236 0
	call osEE_alarm_cancel
.LVL216:
.LBB697:
.LBB698:
.LBB699:
.LBB700:
	.loc 3 118 0
	.loc 3 119 0
	out __SREG__,r28
.LVL217:
.L130:
/* epilogue start */
.LBE700:
.LBE699:
.LBE698:
.LBE697:
.LBE690:
	.loc 2 1263 0
	pop r28
	ret
.LVL218:
.L132:
	.loc 2 1229 0
	ldi r24,lo8(3)
	ldi r25,0
.LVL219:
	.loc 2 1262 0
	rjmp .L130
	.cfi_endproc
.LFE80:
	.size	CancelAlarm, .-CancelAlarm
	.section	.text.GetAlarm,"ax",@progbits
.global	GetAlarm
	.type	GetAlarm, @function
GetAlarm:
.LFB81:
	.loc 2 1271 0
	.cfi_startproc
.LVL220:
	push r28
.LCFI41:
	.cfi_def_cfa_offset 3
	.cfi_offset 28, -2
/* prologue: function */
/* frame size = 0 */
/* stack size = 1 */
.L__stack_usage = 1
.LVL221:
.LBB701:
.LBB702:
	.loc 1 565 0
	ldi r25,0
.LBE702:
.LBE701:
	.loc 2 1281 0
	lds r18,KDB+20
	lds r19,KDB+20+1
	cp r24,r18
	cpc r25,r19
	brsh .L135
	.loc 2 1284 0
	cp r22,__zero_reg__
	cpc r23,__zero_reg__
	breq .L136
.LBB703:
	.loc 2 1289 0
	lds r18,KDB+18
	lds r19,KDB+18+1
	lsl r24
	rol r25
.LVL222:
	add r24,r18
	adc r25,r19
	movw r30,r24
	ld r24,Z
	ldd r25,Z+1
.LVL223:
.LBB704:
.LBB705:
.LBB706:
.LBB707:
	.loc 3 111 0
	in r28,__SREG__
.LVL224:
.LBB708:
.LBB709:
	.loc 3 100 0
/* #APP */
 ;  100 "/home/user/lab-osek/OSEK-GroupProject/erika/src/ee_hal_internal.h" 1
	cli
 ;  0 "" 2
.LVL225:
/* #NOAPP */
.LBE709:
.LBE708:
.LBE707:
.LBE706:
.LBE705:
.LBE704:
	.loc 2 1293 0
	call osEE_alarm_get
.LVL226:
.LBB710:
.LBB711:
.LBB712:
.LBB713:
	.loc 3 118 0
	.loc 3 119 0
	out __SREG__,r28
.LVL227:
.L133:
/* epilogue start */
.LBE713:
.LBE712:
.LBE711:
.LBE710:
.LBE703:
	.loc 2 1322 0
	pop r28
	ret
.LVL228:
.L135:
	.loc 2 1282 0
	ldi r24,lo8(3)
	ldi r25,0
.LVL229:
	rjmp .L133
.LVL230:
.L136:
	.loc 2 1285 0
	ldi r24,lo8(14)
	ldi r25,0
.LVL231:
	.loc 2 1321 0
	rjmp .L133
	.cfi_endproc
.LFE81:
	.size	GetAlarm, .-GetAlarm
	.section	.text.GetAlarmBase,"ax",@progbits
.global	GetAlarmBase
	.type	GetAlarmBase, @function
GetAlarmBase:
.LFB82:
	.loc 2 1330 0
	.cfi_startproc
.LVL232:
/* prologue: function */
/* frame size = 0 */
/* stack size = 0 */
.L__stack_usage = 0
.LBB714:
.LBB715:
	.loc 1 565 0
	ldi r25,0
.LBE715:
.LBE714:
	.loc 2 1340 0
	lds r18,KDB+20
	lds r19,KDB+20+1
	cp r24,r18
	cpc r25,r19
	brsh .L139
	.loc 2 1343 0
	cp r22,__zero_reg__
	cpc r23,__zero_reg__
	breq .L140
.LVL233:
.LBB716:
	.loc 2 1348 0
	lds r18,KDB+18
	lds r19,KDB+18+1
	lsl r24
	rol r25
.LVL234:
	add r24,r18
	adc r25,r19
	.loc 2 1352 0
	movw r26,r24
	ld r30,X+
	ld r31,X
	.loc 2 1354 0
	ldd __tmp_reg__,Z+2
	ldd r31,Z+3
	mov r30,__tmp_reg__
	ldi r24,lo8(6)
	adiw r30,2
	movw r26,r22
	0:
	ld r0,Z+
	st X+,r0
	dec r24
	brne 0b
.LVL235:
	.loc 2 1356 0
	ldi r25,0
	ldi r24,0
	ret
.LVL236:
.L139:
.LBE716:
	.loc 2 1341 0
	ldi r24,lo8(3)
	ldi r25,0
.LVL237:
	ret
.LVL238:
.L140:
	.loc 2 1344 0
	ldi r24,lo8(14)
	ldi r25,0
.LVL239:
/* epilogue start */
	.loc 2 1383 0
	ret
	.cfi_endproc
.LFE82:
	.size	GetAlarmBase, .-GetAlarmBase
	.section	.text.WaitEvent,"ax",@progbits
.global	WaitEvent
	.type	WaitEvent, @function
WaitEvent:
.LFB83:
	.loc 2 1393 0
	.cfi_startproc
.LVL240:
	push r9
.LCFI42:
	.cfi_def_cfa_offset 3
	.cfi_offset 9, -2
	push r10
.LCFI43:
	.cfi_def_cfa_offset 4
	.cfi_offset 10, -3
	push r11
.LCFI44:
	.cfi_def_cfa_offset 5
	.cfi_offset 11, -4
	push r12
.LCFI45:
	.cfi_def_cfa_offset 6
	.cfi_offset 12, -5
	push r13
.LCFI46:
	.cfi_def_cfa_offset 7
	.cfi_offset 13, -6
	push r14
.LCFI47:
	.cfi_def_cfa_offset 8
	.cfi_offset 14, -7
	push r15
.LCFI48:
	.cfi_def_cfa_offset 9
	.cfi_offset 15, -8
	push r16
.LCFI49:
	.cfi_def_cfa_offset 10
	.cfi_offset 16, -9
	push r17
.LCFI50:
	.cfi_def_cfa_offset 11
	.cfi_offset 17, -10
	push r28
.LCFI51:
	.cfi_def_cfa_offset 12
	.cfi_offset 28, -11
	push r29
.LCFI52:
	.cfi_def_cfa_offset 13
	.cfi_offset 29, -12
	rcall .
.LCFI53:
	.cfi_def_cfa_offset 15
	in r28,__SP_L__
	in r29,__SP_H__
.LCFI54:
	.cfi_def_cfa_register 28
/* prologue: function */
/* frame size = 2 */
/* stack size = 13 */
.L__stack_usage = 13
	movw r10,r24
	.loc 2 1398 0
	lds r14,CDB
	lds r15,CDB+1
.LVL241:
	.loc 2 1416 0
	movw r24,r14
.LVL242:
	call osEE_check_disableint
.LVL243:
	or r24,r25
	breq .+2
	rjmp .L143
	.loc 2 1400 0
	movw r26,r14
	ld r12,X+
	ld r13,X
	.loc 2 1419 0
	movw r30,r12
	ldd r24,Z+7
	ldd r25,Z+8
	cpi r24,2
	cpc r25,__zero_reg__
	brlo .+2
	rjmp .L144
	.loc 2 1402 0
	ldd r16,Z+4
	ldd r17,Z+5
	.loc 2 1430 0
	movw r26,r16
	adiw r26,4
	ld r18,X+
	ld r19,X
	sbiw r26,4+1
	or r18,r19
	breq .+2
	rjmp .L145
	.loc 2 1440 0
	sbiw r24,1
	breq .+2
	rjmp .L146
	.loc 2 1446 0
	adiw r26,8
	ld r24,X+
	ld r25,X
	and r24,r10
	and r25,r11
	or r24,r25
	brne .L147
.LBB717:
.LBB718:
.LBB719:
.LBB720:
.LBB721:
	.loc 3 111 0
	in r9,__SREG__
.LVL244:
.LBB722:
.LBB723:
	.loc 3 100 0
/* #APP */
 ;  100 "/home/user/lab-osek/OSEK-GroupProject/erika/src/ee_hal_internal.h" 1
	cli
 ;  0 "" 2
.LVL245:
/* #NOAPP */
.LBE723:
.LBE722:
.LBE721:
.LBE720:
.LBE719:
.LBE718:
	.loc 2 1453 0
	movw r30,r16
	std Z+7,r11
	std Z+6,r10
.LVL246:
	.loc 2 1458 0
	movw r20,r28
	subi r20,-1
	sbci r21,-1
	ldi r22,lo8(CDB)
	ldi r23,hi8(CDB)
	ldi r24,lo8(KDB)
	ldi r25,hi8(KDB)
	call osEE_scheduler_task_block_current
.LVL247:
	.loc 2 1463 0
	ldd r30,Y+1
	ldd r31,Y+2
.LVL248:
.LBB724:
.LBB725:
	.loc 5 96 0
	movw r26,r14
	adiw r26,4
	ld r18,X+
	ld r19,X
	sbiw r26,4+1
	std Z+1,r19
	st Z,r18
	.loc 5 97 0
	adiw r26,4+1
	st X,r31
	st -X,r30
	sbiw r26,4
.LVL249:
.LBE725:
.LBE724:
	.loc 2 1467 0
	movw r22,r24
	movw r24,r12
.LVL250:
	call osEE_change_context_from_running
.LVL251:
	.loc 2 1470 0
	movw r30,r16
	std Z+7,__zero_reg__
	std Z+6,__zero_reg__
.LBB726:
.LBB727:
.LBB728:
.LBB729:
	.loc 3 118 0
	.loc 3 119 0
	out __SREG__,r9
.LVL252:
.L147:
.LBE729:
.LBE728:
.LBE727:
.LBE726:
.LBE717:
	.loc 2 1476 0
	ldi r25,0
	ldi r24,0
.LVL253:
	.loc 2 1495 0
	rjmp .L141
.LVL254:
.L143:
	.loc 2 1417 0
	ldi r24,lo8(12)
	ldi r25,0
.L141:
/* epilogue start */
	.loc 2 1496 0
	pop __tmp_reg__
	pop __tmp_reg__
	pop r29
	pop r28
	pop r17
	pop r16
	pop r15
	pop r14
	pop r13
	pop r12
	pop r11
	pop r10
.LVL255:
	pop r9
	ret
.LVL256:
.L144:
	.loc 2 1427 0
	ldi r24,lo8(2)
	ldi r25,0
	rjmp .L141
.L145:
	.loc 2 1437 0
	ldi r24,lo8(6)
	ldi r25,0
	rjmp .L141
.L146:
	.loc 2 1441 0
	ldi r24,lo8(1)
	ldi r25,0
	rjmp .L141
	.cfi_endproc
.LFE83:
	.size	WaitEvent, .-WaitEvent
	.section	.text.SetEvent,"ax",@progbits
.global	SetEvent
	.type	SetEvent, @function
SetEvent:
.LFB84:
	.loc 2 1504 0
	.cfi_startproc
.LVL257:
	push r13
.LCFI55:
	.cfi_def_cfa_offset 3
	.cfi_offset 13, -2
	push r14
.LCFI56:
	.cfi_def_cfa_offset 4
	.cfi_offset 14, -3
	push r15
.LCFI57:
	.cfi_def_cfa_offset 5
	.cfi_offset 15, -4
	push r16
.LCFI58:
	.cfi_def_cfa_offset 6
	.cfi_offset 16, -5
	push r17
.LCFI59:
	.cfi_def_cfa_offset 7
	.cfi_offset 17, -6
	push r28
.LCFI60:
	.cfi_def_cfa_offset 8
	.cfi_offset 28, -7
	push r29
.LCFI61:
	.cfi_def_cfa_offset 9
	.cfi_offset 29, -8
/* prologue: function */
/* frame size = 0 */
/* stack size = 7 */
.L__stack_usage = 7
	mov r28,r24
	movw r14,r22
	.loc 2 1513 0
	lds r16,CDB
	lds r17,CDB+1
.LVL258:
	.loc 2 1530 0
	movw r24,r16
.LVL259:
	call osEE_check_disableint
.LVL260:
	or r24,r25
	breq .+2
	rjmp .L155
	.loc 2 1533 0
	movw r26,r16
	ld r30,X+
	ld r31,X
.LVL261:
	ldd r24,Z+7
	ldd r25,Z+8
	sbiw r24,3
	brlo .+2
	rjmp .L156
.LVL262:
.LBB730:
.LBB731:
	.loc 1 215 0
	mov r24,r28
	ldi r25,0
.LBE731:
.LBE730:
	.loc 2 1547 0
	lds r18,KDB+6
	lds r19,KDB+6+1
	cp r24,r18
	cpc r25,r19
	brlo .+2
	rjmp .L157
.LBB732:
	.loc 2 1551 0
	lds r18,KDB+2
	lds r19,KDB+2+1
	lsl r24
	rol r25
	add r24,r18
	adc r25,r19
	movw r28,r24
.LVL263:
	ld r26,Y
	ldd r27,Y+1
.LVL264:
	.loc 2 1553 0
	adiw r26,4
	ld r30,X+
	ld r31,X
	sbiw r26,4+1
.LVL265:
.LBB733:
.LBB734:
.LBB735:
.LBB736:
	.loc 3 111 0
	in r13,__SREG__
.LVL266:
.LBB737:
.LBB738:
	.loc 3 100 0
/* #APP */
 ;  100 "/home/user/lab-osek/OSEK-GroupProject/erika/src/ee_hal_internal.h" 1
	cli
 ;  0 "" 2
.LVL267:
/* #NOAPP */
.LBE738:
.LBE737:
.LBE736:
.LBE735:
.LBE734:
.LBE733:
	.loc 2 1563 0
	adiw r26,7
	ld r24,X+
	ld r25,X
	sbiw r26,7+1
	sbiw r24,1
	breq .L150
.LVL268:
.LBB739:
.LBB740:
.LBB741:
.LBB742:
	.loc 3 118 0
	.loc 3 119 0
	out __SREG__,r13
.LVL269:
.LBE742:
.LBE741:
.LBE740:
.LBE739:
	.loc 2 1566 0
	ldi r24,lo8(1)
	ldi r25,0
.LVL270:
.L148:
/* epilogue start */
.LBE732:
	.loc 2 1620 0
	pop r29
	pop r28
	pop r17
	pop r16
.LVL271:
	pop r15
	pop r14
	pop r13
	ret
.LVL272:
.L150:
.LBB754:
	.loc 2 1568 0
	ldd r18,Z+2
	ldd r19,Z+3
	cp r18,__zero_reg__
	cpc r19,__zero_reg__
	brne .L151
.LVL273:
.LBB743:
.LBB744:
.LBB745:
.LBB746:
	.loc 3 118 0
	.loc 3 119 0
	out __SREG__,r13
.LVL274:
.LBE746:
.LBE745:
.LBE744:
.LBE743:
	.loc 2 1571 0
	ldi r24,lo8(7)
	ldi r25,0
	rjmp .L148
.LVL275:
.L151:
	.loc 2 1576 0
	ldd r24,Z+8
	ldd r25,Z+9
	or r24,r14
	or r25,r15
	std Z+9,r25
	std Z+8,r24
	.loc 2 1578 0
	ldd r24,Z+6
	ldd r25,Z+7
	and r14,r24
.LVL276:
	and r15,r25
	or r14,r15
	breq .L153
	.loc 2 1578 0 is_stmt 0 discriminator 1
	cpi r18,3
	cpc r19,__zero_reg__
	brne .L153
.LVL277:
.LBB747:
.LBB748:
.LBB749:
	.loc 5 82 0 is_stmt 1
	movw r28,r16
	ldd r30,Y+4
	ldd r31,Y+5
.LVL278:
	.loc 5 83 0
	ld r24,Z
	ldd r25,Z+1
	std Y+5,r25
	std Y+4,r24
	.loc 5 84 0
	std Z+1,__zero_reg__
	st Z,__zero_reg__
.LVL279:
.LBE749:
.LBE748:
	.loc 2 1584 0
	std Z+3,r27
	std Z+2,r26
	.loc 2 1587 0
	movw r20,r30
	ldi r22,lo8(CDB)
	ldi r23,hi8(CDB)
	ldi r24,lo8(KDB)
	ldi r25,hi8(KDB)
	call osEE_scheduler_task_unblocked
.LVL280:
	or r24,r25
	breq .L153
	.loc 2 1589 0
	ldi r22,lo8(CDB)
	ldi r23,hi8(CDB)
	ldi r24,lo8(KDB)
	ldi r25,hi8(KDB)
	call osEE_scheduler_task_preemption_point
.LVL281:
.L153:
.LBE747:
.LBB750:
.LBB751:
.LBB752:
.LBB753:
	.loc 3 118 0
	.loc 3 119 0
	out __SREG__,r13
.LVL282:
.LBE753:
.LBE752:
.LBE751:
.LBE750:
	.loc 2 1596 0
	ldi r25,0
	ldi r24,0
	rjmp .L148
.LVL283:
.L155:
.LBE754:
	.loc 2 1531 0
	ldi r24,lo8(12)
	ldi r25,0
	rjmp .L148
.LVL284:
.L156:
	.loc 2 1541 0
	ldi r24,lo8(2)
	ldi r25,0
	rjmp .L148
.LVL285:
.L157:
	.loc 2 1548 0
	ldi r24,lo8(3)
	ldi r25,0
.LVL286:
	.loc 2 1619 0
	rjmp .L148
	.cfi_endproc
.LFE84:
	.size	SetEvent, .-SetEvent
	.section	.text.GetEvent,"ax",@progbits
.global	GetEvent
	.type	GetEvent, @function
GetEvent:
.LFB85:
	.loc 2 1628 0
	.cfi_startproc
.LVL287:
	push r14
.LCFI62:
	.cfi_def_cfa_offset 3
	.cfi_offset 14, -2
	push r15
.LCFI63:
	.cfi_def_cfa_offset 4
	.cfi_offset 15, -3
	push r16
.LCFI64:
	.cfi_def_cfa_offset 5
	.cfi_offset 16, -4
	push r17
.LCFI65:
	.cfi_def_cfa_offset 6
	.cfi_offset 17, -5
	push r28
.LCFI66:
	.cfi_def_cfa_offset 7
	.cfi_offset 28, -6
/* prologue: function */
/* frame size = 0 */
/* stack size = 5 */
.L__stack_usage = 5
	mov r28,r24
	movw r16,r22
	.loc 2 1637 0
	lds r14,CDB
	lds r15,CDB+1
.LVL288:
	.loc 2 1657 0
	movw r24,r14
.LVL289:
	call osEE_check_disableint
.LVL290:
	or r24,r25
	brne .L163
	.loc 2 1660 0
	movw r26,r14
	ld r30,X+
	ld r31,X
.LVL291:
	ldd r24,Z+7
	ldd r25,Z+8
	sbiw r24,3
	brsh .L164
.LVL292:
.LBB755:
.LBB756:
	.loc 1 215 0
	mov r24,r28
	ldi r25,0
.LBE756:
.LBE755:
	.loc 2 1676 0
	lds r18,KDB+6
	lds r19,KDB+6+1
	cp r24,r18
	cpc r25,r19
	brsh .L165
.LBB757:
	.loc 2 1681 0
	lds r18,KDB+2
	lds r19,KDB+2+1
	lsl r24
	rol r25
	add r24,r18
	adc r25,r19
	movw r26,r24
	ld r30,X+
	ld r31,X
.LVL293:
	.loc 2 1687 0
	ldd r24,Z+7
	ldd r25,Z+8
	sbiw r24,1
	brne .L166
	.loc 2 1683 0
	ldd __tmp_reg__,Z+4
	ldd r31,Z+5
	mov r30,__tmp_reg__
.LVL294:
	.loc 2 1690 0
	ldd r24,Z+2
	ldd r25,Z+3
	or r24,r25
	breq .L167
	.loc 2 1695 0
	ldi r24,lo8(14)
	ldi r25,0
	.loc 2 1694 0
	cp r16,__zero_reg__
	cpc r17,__zero_reg__
	breq .L161
	.loc 2 1698 0
	ldd r24,Z+8
	ldd r25,Z+9
	movw r30,r16
.LVL295:
	std Z+1,r25
	st Z,r24
.LVL296:
	.loc 2 1700 0
	ldi r25,0
	ldi r24,0
.LVL297:
.L161:
/* epilogue start */
.LBE757:
	.loc 2 1724 0
	pop r28
.LVL298:
	pop r17
	pop r16
.LVL299:
	pop r15
	pop r14
.LVL300:
	ret
.LVL301:
.L163:
	.loc 2 1658 0
	ldi r24,lo8(12)
	ldi r25,0
	rjmp .L161
.LVL302:
.L164:
	.loc 2 1670 0
	ldi r24,lo8(2)
	ldi r25,0
	rjmp .L161
.LVL303:
.L165:
	.loc 2 1677 0
	ldi r24,lo8(3)
	ldi r25,0
.LVL304:
	rjmp .L161
.LVL305:
.L166:
.LBB758:
	.loc 2 1688 0
	ldi r24,lo8(1)
	ldi r25,0
	rjmp .L161
.LVL306:
.L167:
	.loc 2 1691 0
	ldi r24,lo8(7)
	ldi r25,0
	rjmp .L161
.LBE758:
	.cfi_endproc
.LFE85:
	.size	GetEvent, .-GetEvent
	.section	.text.ClearEvent,"ax",@progbits
.global	ClearEvent
	.type	ClearEvent, @function
ClearEvent:
.LFB86:
	.loc 2 1731 0
	.cfi_startproc
.LVL307:
	push r16
.LCFI67:
	.cfi_def_cfa_offset 3
	.cfi_offset 16, -2
	push r17
.LCFI68:
	.cfi_def_cfa_offset 4
	.cfi_offset 17, -3
	push r28
.LCFI69:
	.cfi_def_cfa_offset 5
	.cfi_offset 28, -4
	push r29
.LCFI70:
	.cfi_def_cfa_offset 6
	.cfi_offset 29, -5
/* prologue: function */
/* frame size = 0 */
/* stack size = 4 */
.L__stack_usage = 4
	movw r28,r24
	.loc 2 1736 0
	lds r16,CDB
	lds r17,CDB+1
.LVL308:
	.loc 2 1754 0
	movw r24,r16
.LVL309:
	call osEE_check_disableint
.LVL310:
	or r24,r25
	brne .L171
	.loc 2 1738 0
	movw r26,r16
	ld r30,X+
	ld r31,X
	.loc 2 1757 0
	ldd r24,Z+7
	ldd r25,Z+8
	cpi r24,2
	cpc r25,__zero_reg__
	brsh .L172
	.loc 2 1767 0
	sbiw r24,1
	brne .L173
	.loc 2 1740 0
	ldd __tmp_reg__,Z+4
	ldd r31,Z+5
	mov r30,__tmp_reg__
	.loc 2 1773 0
	com r28
	com r29
.LVL311:
	ldd r24,Z+8
	ldd r25,Z+9
	and r24,r28
	and r25,r29
	std Z+9,r25
	std Z+8,r24
.LVL312:
	.loc 2 1775 0
	ldi r25,0
	ldi r24,0
.LVL313:
.L169:
/* epilogue start */
	.loc 2 1794 0
	pop r29
	pop r28
	pop r17
	pop r16
	ret
.LVL314:
.L171:
	.loc 2 1755 0
	ldi r24,lo8(12)
	ldi r25,0
	rjmp .L169
.L172:
	.loc 2 1765 0
	ldi r24,lo8(2)
	ldi r25,0
	rjmp .L169
.L173:
	.loc 2 1768 0
	ldi r24,lo8(1)
	ldi r25,0
.LVL315:
	.loc 2 1793 0
	rjmp .L169
	.cfi_endproc
.LFE86:
	.size	ClearEvent, .-ClearEvent
	.section	.text.GetISRID,"ax",@progbits
.global	GetISRID
	.type	GetISRID, @function
GetISRID:
.LFB87:
	.loc 2 1844 0
	.cfi_startproc
/* prologue: function */
/* frame size = 0 */
/* stack size = 0 */
.L__stack_usage = 0
.LBB759:
.LBB760:
	.loc 1 92 0
	lds r30,CDB
	lds r31,CDB+1
	ld __tmp_reg__,Z+
	ld r31,Z
	mov r30,__tmp_reg__
.LBE760:
.LBE759:
	.loc 2 1849 0
	ldd r24,Z+7
	ldd r25,Z+8
	sbiw r24,2
	brne .L176
	.loc 2 1850 0
	ldd r24,Z+6
.LVL316:
	ret
.LVL317:
.L176:
	.loc 2 1852 0
	ldi r24,lo8(-1)
.LVL318:
/* epilogue start */
	.loc 2 1856 0
	ret
	.cfi_endproc
.LFE87:
	.size	GetISRID, .-GetISRID
	.text
.Letext0:
	.file 6 "/home/user/arduino-1.8.13/hardware/tools/avr/avr/include/stdint.h"
	.file 7 "/home/user/lab-osek/OSEK-GroupProject/erika/inc/ee_platform_types.h"
	.file 8 "/home/user/lab-osek/OSEK-GroupProject/erika/inc/ee_hal_internal_types.h"
	.file 9 "/home/user/lab-osek/OSEK-GroupProject/erika/inc/ee_api_types.h"
	.file 10 "/home/user/lab-osek/OSEK-GroupProject/erika/inc/ee_kernel_types.h"
	.file 11 "/home/user/lab-osek/OSEK-GroupProject/erika/inc/ee_get_kernel_and_core.h"
	.file 12 "/home/user/lab-osek/OSEK-GroupProject/erika/src/ee_scheduler.h"
	.file 13 "/home/user/lab-osek/OSEK-GroupProject/erika/inc/ee_oo_api_osek.h"